; Function Attrs: mustprogress uwtable
define internal void @_ZNK6google8protobuf8compiler3cpp12_GLOBAL__N_114SingularString8MakeVarsEv(ptr noalias nocapture writeonly sret(%"class.std::vector") align 8 %agg.result, ptr nocapture noundef nonnull readonly align 8 dereferenceable(104) %this) unnamed_addr #3 align 2 {
entry:
  %field_ = getelementptr inbounds i8, ptr %this, i64 88
  %0 = load ptr, ptr %field_, align 8
  %opts_ = getelementptr inbounds i8, ptr %this, i64 96
  %1 = load ptr, ptr %opts_, align 8
  tail call fastcc void @_ZN6google8protobuf8compiler3cpp12_GLOBAL__N_14VarsEPKNS0_15FieldDescriptorERKNS2_7OptionsE(ptr noalias align 8 %agg.result, ptr noundef %0, ptr noundef nonnull align 8 dereferenceable(206) %1)
  ret void
}